; Function Attrs: nounwind uwtable
define i32 @b2Shape_GetContactCapacity(i64 %0) local_unnamed_addr #0 {
  %.sroa.2.0.extract.shift = lshr i64 %0, 32
  %2 = trunc nuw i64 %.sroa.2.0.extract.shift to i32
  %3 = and i32 %2, 65535
  %4 = tail call ptr @b2GetWorldLocked(i32 noundef %3) #10
  %5 = icmp eq ptr %4, null
  br i1 %5, label %20, label %6

6:                                                ; preds = %1
  %7 = getelementptr i8, ptr %4, i64 1256
  %.val = load ptr, ptr %7, align 8, !tbaa !14
  %8 = shl i64 %0, 32
  %sext.i = add i64 %8, -4294967296
  %9 = ashr exact i64 %sext.i, 32
  %10 = getelementptr inbounds %struct.b2Shape, ptr %.val, i64 %9
  %11 = getelementptr inbounds nuw i8, ptr %10, i64 16
  %12 = load i32, ptr %11, align 8, !tbaa !55
  %.not = icmp eq i32 %12, -1
  br i1 %.not, label %13, label %20

13:                                               ; preds = %6
  %14 = getelementptr inbounds nuw i8, ptr %4, i64 1032
  %15 = getelementptr inbounds nuw i8, ptr %10, i64 4
  %16 = load i32, ptr %15, align 4, !tbaa !34
  %.val7 = load ptr, ptr %14, align 8, !tbaa !35
  %17 = sext i32 %16 to i64
  %18 = getelementptr inbounds %struct.b2Body, ptr %.val7, i64 %17, i32 5
  %19 = load i32, ptr %18, align 4, !tbaa !225
  br label %20

20:                                               ; preds = %13, %6, %1
  %.0 = phi i32 [ 0, %1 ], [ %19, %13 ], [ 0, %6 ]
  ret i32 %.0
}